target datalayout = "e-m:e-p270:32:32-p271:32:32-p272:64:64-i64:64-i128:128-f80:128-n8:16:32:64-S128"
target triple = "x86_64-pc-linux-gnu"

%struct.SDL_WaylandSeat = type { ptr, ptr, ptr, ptr, ptr, %struct.wl_list, i32, i32, %struct.anon, %struct.anon.1, %struct.anon.4, %struct.anon.5, %struct.anon.6 }
%struct.wl_list = type { ptr, ptr }
%struct.anon = type { ptr, ptr, ptr, ptr, ptr, %struct.SDL_WaylandKeyboardRepeat, i64, i16, i16, i32, i8, %struct.anon.0 }
%struct.SDL_WaylandKeyboardRepeat = type { i32, i32, i32, i8, i8, i32, i64, i64, i64, i32, [8 x i8] }
%struct.anon.0 = type { ptr, ptr, ptr, ptr, i32, i32, i32, i32, i32, i32, i32, i32, i32, i32, i32 }
%struct.anon.1 = type { ptr, ptr, ptr, ptr, ptr, ptr, ptr, ptr, i64, i32, i32, %struct.SDL_Point, i32, %struct.anon.2, %struct.anon.3 }
%struct.SDL_Point = type { i32, i32 }
%struct.anon.2 = type { i32, float, i32, float, i64, i32 }
%struct.anon.3 = type { ptr, ptr, ptr, i64, i64, i32 }
%struct.anon.4 = type { ptr, ptr, i64, %struct.wl_list }
%struct.anon.5 = type { ptr, %struct.SDL_Rect, i8, i8 }
%struct.SDL_Rect = type { i32, i32, i32, i32 }
%struct.anon.6 = type { ptr, %struct.wl_list }
%union.anon.21 = type { double }

; Function Attrs: inlinehint nounwind uwtable
define internal double @wl_fixed_to_double(i32 noundef %0) #2 {
  %2 = alloca i32, align 4
  %3 = alloca %union.anon.21, align 8
  store i32 %0, ptr %2, align 4
  call void @llvm.lifetime.start.p0(i64 8, ptr %3) #10
  %4 = load i32, ptr %2, align 4
  %5 = sext i32 %4 to i64
  %6 = add nsw i64 4807592602218004480, %5
  store i64 %6, ptr %3, align 8
  %7 = load double, ptr %3, align 8
  %8 = fsub double %7, 0x42B8000000000000
  call void @llvm.lifetime.end.p0(i64 8, ptr %3) #10
  ret double %8
}

; Function Attrs: nounwind uwtable
define internal void @pointer_handle_axis_common(ptr noundef %0, i32 noundef %1, i32 noundef %2, i32 noundef %3) #0 {
  %5 = alloca ptr, align 8
  %6 = alloca i32, align 4
  %7 = alloca i32, align 4
  %8 = alloca i32, align 4
  %9 = alloca i32, align 4
  store ptr %0, ptr %5, align 8
  store i32 %1, ptr %6, align 4
  store i32 %2, ptr %7, align 4
  store i32 %3, ptr %8, align 4
  call void @llvm.lifetime.start.p0(i64 4, ptr %9) #10
  %10 = load i32, ptr %7, align 4
  store i32 %10, ptr %9, align 4
  %11 = load ptr, ptr %5, align 8
  %12 = getelementptr inbounds nuw %struct.SDL_WaylandSeat, ptr %11, i32 0, i32 9
  %13 = getelementptr inbounds nuw %struct.anon.1, ptr %12, i32 0, i32 6
  %14 = load ptr, ptr %13, align 8
  %15 = icmp ne ptr %14, null
  br i1 %15, label %16, label %152

16:                                               ; preds = %4
  %17 = load i32, ptr %9, align 4
  switch i32 %17, label %151 [
    i32 0, label %18
    i32 1, label %86
  ]

18:                                               ; preds = %16
  %19 = load i32, ptr %6, align 4
  switch i32 %19, label %85 [
    i32 2, label %20
    i32 1, label %47
    i32 0, label %68
  ]

20:                                               ; preds = %18
  %21 = load ptr, ptr %5, align 8
  %22 = getelementptr inbounds nuw %struct.SDL_WaylandSeat, ptr %21, i32 0, i32 9
  %23 = getelementptr inbounds nuw %struct.anon.1, ptr %22, i32 0, i32 13
  %24 = getelementptr inbounds nuw %struct.anon.2, ptr %23, i32 0, i32 2
  %25 = load i32, ptr %24, align 8
  %26 = icmp ne i32 %25, 2
  br i1 %26, label %27, label %36

27:                                               ; preds = %20
  %28 = load ptr, ptr %5, align 8
  %29 = getelementptr inbounds nuw %struct.SDL_WaylandSeat, ptr %28, i32 0, i32 9
  %30 = getelementptr inbounds nuw %struct.anon.1, ptr %29, i32 0, i32 13
  %31 = getelementptr inbounds nuw %struct.anon.2, ptr %30, i32 0, i32 2
  store i32 2, ptr %31, align 8
  %32 = load ptr, ptr %5, align 8
  %33 = getelementptr inbounds nuw %struct.SDL_WaylandSeat, ptr %32, i32 0, i32 9
  %34 = getelementptr inbounds nuw %struct.anon.1, ptr %33, i32 0, i32 13
  %35 = getelementptr inbounds nuw %struct.anon.2, ptr %34, i32 0, i32 3
  store float 0.000000e+00, ptr %35, align 4
  br label %36

36:                                               ; preds = %27, %20
  %37 = load i32, ptr %8, align 4
  %38 = call double @wl_fixed_to_double(i32 noundef %37)
  %39 = fptrunc double %38 to float
  %40 = fsub float 0.000000e+00, %39
  %41 = load ptr, ptr %5, align 8
  %42 = getelementptr inbounds nuw %struct.SDL_WaylandSeat, ptr %41, i32 0, i32 9
  %43 = getelementptr inbounds nuw %struct.anon.1, ptr %42, i32 0, i32 13
  %44 = getelementptr inbounds nuw %struct.anon.2, ptr %43, i32 0, i32 3
  %45 = load float, ptr %44, align 4
  %46 = fadd float %45, %40
  store float %46, ptr %44, align 4
  br label %85

47:                                               ; preds = %18
  %48 = load ptr, ptr %5, align 8
  %49 = getelementptr inbounds nuw %struct.SDL_WaylandSeat, ptr %48, i32 0, i32 9
  %50 = getelementptr inbounds nuw %struct.anon.1, ptr %49, i32 0, i32 13
  %51 = getelementptr inbounds nuw %struct.anon.2, ptr %50, i32 0, i32 2
  %52 = load i32, ptr %51, align 8
  %53 = icmp ne i32 %52, 1
  br i1 %53, label %54, label %67

54:                                               ; preds = %47
  %55 = load ptr, ptr %5, align 8
  %56 = getelementptr inbounds nuw %struct.SDL_WaylandSeat, ptr %55, i32 0, i32 9
  %57 = getelementptr inbounds nuw %struct.anon.1, ptr %56, i32 0, i32 13
  %58 = getelementptr inbounds nuw %struct.anon.2, ptr %57, i32 0, i32 2
  store i32 1, ptr %58, align 8
  %59 = load i32, ptr %8, align 4
  %60 = call double @wl_fixed_to_double(i32 noundef %59)
  %61 = fptrunc double %60 to float
  %62 = fsub float 0.000000e+00, %61
  %63 = load ptr, ptr %5, align 8
  %64 = getelementptr inbounds nuw %struct.SDL_WaylandSeat, ptr %63, i32 0, i32 9
  %65 = getelementptr inbounds nuw %struct.anon.1, ptr %64, i32 0, i32 13
  %66 = getelementptr inbounds nuw %struct.anon.2, ptr %65, i32 0, i32 3
  store float %62, ptr %66, align 4
  br label %67

67:                                               ; preds = %54, %47
  br label %85

68:                                               ; preds = %18
  %69 = load ptr, ptr %5, align 8
  %70 = getelementptr inbounds nuw %struct.SDL_WaylandSeat, ptr %69, i32 0, i32 9
  %71 = getelementptr inbounds nuw %struct.anon.1, ptr %70, i32 0, i32 13
  %72 = getelementptr inbounds nuw %struct.anon.2, ptr %71, i32 0, i32 2
  %73 = load i32, ptr %72, align 8
  %74 = icmp eq i32 %73, 0
  br i1 %74, label %75, label %84

75:                                               ; preds = %68
  %76 = load i32, ptr %8, align 4
  %77 = call double @wl_fixed_to_double(i32 noundef %76)
  %78 = fptrunc double %77 to float
  %79 = fsub float 0.000000e+00, %78
  %80 = load ptr, ptr %5, align 8
  %81 = getelementptr inbounds nuw %struct.SDL_WaylandSeat, ptr %80, i32 0, i32 9
  %82 = getelementptr inbounds nuw %struct.anon.1, ptr %81, i32 0, i32 13
  %83 = getelementptr inbounds nuw %struct.anon.2, ptr %82, i32 0, i32 3
  store float %79, ptr %83, align 4
  br label %84

84:                                               ; preds = %75, %68
  br label %85

85:                                               ; preds = %18, %84, %67, %36
  br label %151

86:                                               ; preds = %16
  %87 = load i32, ptr %6, align 4
  switch i32 %87, label %150 [
    i32 2, label %88
    i32 1, label %114
    i32 0, label %134
  ]

88:                                               ; preds = %86
  %89 = load ptr, ptr %5, align 8
  %90 = getelementptr inbounds nuw %struct.SDL_WaylandSeat, ptr %89, i32 0, i32 9
  %91 = getelementptr inbounds nuw %struct.anon.1, ptr %90, i32 0, i32 13
  %92 = getelementptr inbounds nuw %struct.anon.2, ptr %91, i32 0, i32 0
  %93 = load i32, ptr %92, align 8
  %94 = icmp ne i32 %93, 2
  br i1 %94, label %95, label %104

95:                                               ; preds = %88
  %96 = load ptr, ptr %5, align 8
  %97 = getelementptr inbounds nuw %struct.SDL_WaylandSeat, ptr %96, i32 0, i32 9
  %98 = getelementptr inbounds nuw %struct.anon.1, ptr %97, i32 0, i32 13
  %99 = getelementptr inbounds nuw %struct.anon.2, ptr %98, i32 0, i32 0
  store i32 2, ptr %99, align 8
  %100 = load ptr, ptr %5, align 8
  %101 = getelementptr inbounds nuw %struct.SDL_WaylandSeat, ptr %100, i32 0, i32 9
  %102 = getelementptr inbounds nuw %struct.anon.1, ptr %101, i32 0, i32 13
  %103 = getelementptr inbounds nuw %struct.anon.2, ptr %102, i32 0, i32 1
  store float 0.000000e+00, ptr %103, align 4
  br label %104

104:                                              ; preds = %95, %88
  %105 = load i32, ptr %8, align 4
  %106 = call double @wl_fixed_to_double(i32 noundef %105)
  %107 = fptrunc double %106 to float
  %108 = load ptr, ptr %5, align 8
  %109 = getelementptr inbounds nuw %struct.SDL_WaylandSeat, ptr %108, i32 0, i32 9
  %110 = getelementptr inbounds nuw %struct.anon.1, ptr %109, i32 0, i32 13
  %111 = getelementptr inbounds nuw %struct.anon.2, ptr %110, i32 0, i32 1
  %112 = load float, ptr %111, align 4
  %113 = fadd float %112, %107
  store float %113, ptr %111, align 4
  br label %150

114:                                              ; preds = %86
  %115 = load ptr, ptr %5, align 8
  %116 = getelementptr inbounds nuw %struct.SDL_WaylandSeat, ptr %115, i32 0, i32 9
  %117 = getelementptr inbounds nuw %struct.anon.1, ptr %116, i32 0, i32 13
  %118 = getelementptr inbounds nuw %struct.anon.2, ptr %117, i32 0, i32 0
  %119 = load i32, ptr %118, align 8
  %120 = icmp ne i32 %119, 1
  br i1 %120, label %121, label %133

121:                                              ; preds = %114
  %122 = load ptr, ptr %5, align 8
  %123 = getelementptr inbounds nuw %struct.SDL_WaylandSeat, ptr %122, i32 0, i32 9
  %124 = getelementptr inbounds nuw %struct.anon.1, ptr %123, i32 0, i32 13
  %125 = getelementptr inbounds nuw %struct.anon.2, ptr %124, i32 0, i32 0
  store i32 1, ptr %125, align 8
  %126 = load i32, ptr %8, align 4
  %127 = call double @wl_fixed_to_double(i32 noundef %126)
  %128 = fptrunc double %127 to float
  %129 = load ptr, ptr %5, align 8
  %130 = getelementptr inbounds nuw %struct.SDL_WaylandSeat, ptr %129, i32 0, i32 9
  %131 = getelementptr inbounds nuw %struct.anon.1, ptr %130, i32 0, i32 13
  %132 = getelementptr inbounds nuw %struct.anon.2, ptr %131, i32 0, i32 1
  store float %128, ptr %132, align 4
  br label %133

133:                                              ; preds = %121, %114
  br label %150

134:                                              ; preds = %86
  %135 = load ptr, ptr %5, align 8
  %136 = getelementptr inbounds nuw %struct.SDL_WaylandSeat, ptr %135, i32 0, i32 9
  %137 = getelementptr inbounds nuw %struct.anon.1, ptr %136, i32 0, i32 13
  %138 = getelementptr inbounds nuw %struct.anon.2, ptr %137, i32 0, i32 0
  %139 = load i32, ptr %138, align 8
  %140 = icmp eq i32 %139, 0
  br i1 %140, label %141, label %149

141:                                              ; preds = %134
  %142 = load i32, ptr %8, align 4
  %143 = call double @wl_fixed_to_double(i32 noundef %142)
  %144 = fptrunc double %143 to float
  %145 = load ptr, ptr %5, align 8
  %146 = getelementptr inbounds nuw %struct.SDL_WaylandSeat, ptr %145, i32 0, i32 9
  %147 = getelementptr inbounds nuw %struct.anon.1, ptr %146, i32 0, i32 13
  %148 = getelementptr inbounds nuw %struct.anon.2, ptr %147, i32 0, i32 1
  store float %144, ptr %148, align 4
  br label %149

149:                                              ; preds = %141, %134
  br label %150

150:                                              ; preds = %86, %149, %133, %104
  br label %151

151:                                              ; preds = %16, %150, %85
  br label %152

152:                                              ; preds = %151, %4
  call void @llvm.lifetime.end.p0(i64 4, ptr %9) #10
  ret void
}

; Function Attrs: inlinehint nounwind uwtable
define internal i32 @wl_fixed_from_int(i32 noundef %0) #2 {
  %2 = alloca i32, align 4
  store i32 %0, ptr %2, align 4
  %3 = load i32, ptr %2, align 4
  %4 = mul nsw i32 %3, 256
  ret i32 %4
}

; Function Attrs: nounwind uwtable
define internal void @pointer_handle_axis_value120(ptr noundef %0, ptr noundef %1, i32 noundef %2, i32 noundef %3) #0 {
  %5 = alloca ptr, align 8
  %6 = alloca ptr, align 8
  %7 = alloca i32, align 4
  %8 = alloca i32, align 4
  %9 = alloca ptr, align 8
  store ptr %0, ptr %5, align 8
  store ptr %1, ptr %6, align 8
  store i32 %2, ptr %7, align 4
  store i32 %3, ptr %8, align 4
  call void @llvm.lifetime.start.p0(i64 8, ptr %9) #10
  %10 = load ptr, ptr %5, align 8
  store ptr %10, ptr %9, align 8
  %11 = load ptr, ptr %9, align 8
  %12 = load i32, ptr %7, align 4
  %13 = load i32, ptr %8, align 4
  %14 = call i32 @wl_fixed_from_int(i32 noundef %13)
  call void @pointer_handle_axis_common(ptr noundef %11, i32 noundef 2, i32 noundef %12, i32 noundef %14)
  call void @llvm.lifetime.end.p0(i64 8, ptr %9) #10
  ret void
}