; Function Attrs: mustprogress nofree norecurse nosync nounwind willreturn memory(argmem: readwrite) uwtable
define internal void @pointer_handle_axis_value120(ptr noundef captures(none) %0, ptr readnone captures(none) %1, i32 noundef %2, i32 noundef %3) #8 {
  %5 = shl nsw i32 %3, 8
  %6 = getelementptr inbounds nuw i8, ptr %0, i64 320
  %7 = load ptr, ptr %6, align 8
  %.not.i = icmp eq ptr %7, null
  br i1 %.not.i, label %pointer_handle_axis_common.exit, label %8

8:                                                ; preds = %4
  switch i32 %2, label %pointer_handle_axis_common.exit [
    i32 0, label %9
    i32 1, label %23
  ]

9:                                                ; preds = %8
  %10 = getelementptr inbounds nuw i8, ptr %0, i64 376
  %11 = load i32, ptr %10, align 8
  %.not31.i = icmp eq i32 %11, 2
  br i1 %.not31.i, label %._crit_edge32.i, label %12

._crit_edge32.i:                                  ; preds = %9
  %.phi.trans.insert33.i = getelementptr inbounds nuw i8, ptr %0, i64 380
  %.pre34.i = load float, ptr %.phi.trans.insert33.i, align 4
  br label %13

12:                                               ; preds = %9
  store i32 2, ptr %10, align 8
  br label %13

13:                                               ; preds = %12, %._crit_edge32.i
  %14 = phi float [ %.pre34.i, %._crit_edge32.i ], [ 0.000000e+00, %12 ]
  %15 = sext i32 %5 to i64
  %16 = add nsw i64 %15, 4807592602218004480
  %17 = bitcast i64 %16 to double
  %18 = fadd double %17, 0xC2B8000000000000
  %19 = fptrunc double %18 to float
  %20 = fsub float 0.000000e+00, %19
  %21 = getelementptr inbounds nuw i8, ptr %0, i64 380
  %22 = fadd float %20, %14
  store float %22, ptr %21, align 4
  br label %pointer_handle_axis_common.exit

23:                                               ; preds = %8
  %24 = getelementptr inbounds nuw i8, ptr %0, i64 368
  %25 = load i32, ptr %24, align 8
  %.not29.i = icmp eq i32 %25, 2
  br i1 %.not29.i, label %._crit_edge.i, label %26

._crit_edge.i:                                    ; preds = %23
  %.phi.trans.insert.i = getelementptr inbounds nuw i8, ptr %0, i64 372
  %.pre.i = load float, ptr %.phi.trans.insert.i, align 4
  br label %27

26:                                               ; preds = %23
  store i32 2, ptr %24, align 8
  br label %27

27:                                               ; preds = %26, %._crit_edge.i
  %28 = phi float [ %.pre.i, %._crit_edge.i ], [ 0.000000e+00, %26 ]
  %29 = sext i32 %5 to i64
  %30 = add nsw i64 %29, 4807592602218004480
  %31 = bitcast i64 %30 to double
  %32 = fadd double %31, 0xC2B8000000000000
  %33 = fptrunc double %32 to float
  %34 = getelementptr inbounds nuw i8, ptr %0, i64 372
  %35 = fadd float %28, %33
  store float %35, ptr %34, align 4
  br label %pointer_handle_axis_common.exit

pointer_handle_axis_common.exit:                  ; preds = %4, %8, %13, %27
  ret void
}